target datalayout = "e-m:e-p270:32:32-p271:32:32-p272:64:64-i64:64-i128:128-f80:128-n8:16:32:64-S128"
target triple = "x86_64-pc-linux-gnu"

@.str.51 = private unnamed_addr constant [12 x i8] c"KIN_SUCCESS\00", align 1
@.str.52 = private unnamed_addr constant [21 x i8] c"KIN_INITIAL_GUESS_OK\00", align 1
@.str.53 = private unnamed_addr constant [19 x i8] c"KIN_STEP_LT_STPTOL\00", align 1
@.str.54 = private unnamed_addr constant [12 x i8] c"KIN_WARNING\00", align 1
@.str.55 = private unnamed_addr constant [13 x i8] c"KIN_MEM_NULL\00", align 1
@.str.56 = private unnamed_addr constant [14 x i8] c"KIN_ILL_INPUT\00", align 1
@.str.57 = private unnamed_addr constant [14 x i8] c"KIN_NO_MALLOC\00", align 1
@.str.58 = private unnamed_addr constant [13 x i8] c"KIN_MEM_FAIL\00", align 1
@.str.59 = private unnamed_addr constant [23 x i8] c"KIN_LINESEARCH_NONCONV\00", align 1
@.str.60 = private unnamed_addr constant [20 x i8] c"KIN_MAXITER_REACHED\00", align 1
@.str.61 = private unnamed_addr constant [23 x i8] c"KIN_MXNEWT_5X_EXCEEDED\00", align 1
@.str.62 = private unnamed_addr constant [22 x i8] c"KIN_LINESEARCH_BCFAIL\00", align 1
@.str.63 = private unnamed_addr constant [24 x i8] c"KIN_LINSOLV_NO_RECOVERY\00", align 1
@.str.64 = private unnamed_addr constant [15 x i8] c"KIN_LINIT_FAIL\00", align 1
@.str.65 = private unnamed_addr constant [16 x i8] c"KIN_LSETUP_FAIL\00", align 1
@.str.66 = private unnamed_addr constant [16 x i8] c"KIN_LSOLVE_FAIL\00", align 1
@.str.67 = private unnamed_addr constant [5 x i8] c"NONE\00", align 1

; Function Attrs: nounwind uwtable
define ptr @KINGetReturnFlagName(i64 noundef %0) #0 {
  %2 = alloca i64, align 8
  %3 = alloca ptr, align 8
  store i64 %0, ptr %2, align 8
  %4 = call noalias ptr @malloc(i64 noundef 24) #4
  store ptr %4, ptr %3, align 8
  %5 = load i64, ptr %2, align 8
  switch i64 %5, label %54 [
    i64 0, label %6
    i64 1, label %9
    i64 2, label %12
    i64 99, label %15
    i64 -1, label %18
    i64 -2, label %21
    i64 -3, label %24
    i64 -4, label %27
    i64 -5, label %30
    i64 -6, label %33
    i64 -7, label %36
    i64 -8, label %39
    i64 -9, label %42
    i64 -10, label %45
    i64 -11, label %48
    i64 -12, label %51
  ]

6:                                                ; preds = %1
  %7 = load ptr, ptr %3, align 8
  %8 = call i32 (ptr, ptr, ...) @sprintf(ptr noundef %7, ptr noundef @.str.51) #5
  br label %57

9:                                                ; preds = %1
  %10 = load ptr, ptr %3, align 8
  %11 = call i32 (ptr, ptr, ...) @sprintf(ptr noundef %10, ptr noundef @.str.52) #5
  br label %57

12:                                               ; preds = %1
  %13 = load ptr, ptr %3, align 8
  %14 = call i32 (ptr, ptr, ...) @sprintf(ptr noundef %13, ptr noundef @.str.53) #5
  br label %57

15:                                               ; preds = %1
  %16 = load ptr, ptr %3, align 8
  %17 = call i32 (ptr, ptr, ...) @sprintf(ptr noundef %16, ptr noundef @.str.54) #5
  br label %57

18:                                               ; preds = %1
  %19 = load ptr, ptr %3, align 8
  %20 = call i32 (ptr, ptr, ...) @sprintf(ptr noundef %19, ptr noundef @.str.55) #5
  br label %57

21:                                               ; preds = %1
  %22 = load ptr, ptr %3, align 8
  %23 = call i32 (ptr, ptr, ...) @sprintf(ptr noundef %22, ptr noundef @.str.56) #5
  br label %57

24:                                               ; preds = %1
  %25 = load ptr, ptr %3, align 8
  %26 = call i32 (ptr, ptr, ...) @sprintf(ptr noundef %25, ptr noundef @.str.57) #5
  br label %57

27:                                               ; preds = %1
  %28 = load ptr, ptr %3, align 8
  %29 = call i32 (ptr, ptr, ...) @sprintf(ptr noundef %28, ptr noundef @.str.58) #5
  br label %57

30:                                               ; preds = %1
  %31 = load ptr, ptr %3, align 8
  %32 = call i32 (ptr, ptr, ...) @sprintf(ptr noundef %31, ptr noundef @.str.59) #5
  br label %57

33:                                               ; preds = %1
  %34 = load ptr, ptr %3, align 8
  %35 = call i32 (ptr, ptr, ...) @sprintf(ptr noundef %34, ptr noundef @.str.60) #5
  br label %57

36:                                               ; preds = %1
  %37 = load ptr, ptr %3, align 8
  %38 = call i32 (ptr, ptr, ...) @sprintf(ptr noundef %37, ptr noundef @.str.61) #5
  br label %57

39:                                               ; preds = %1
  %40 = load ptr, ptr %3, align 8
  %41 = call i32 (ptr, ptr, ...) @sprintf(ptr noundef %40, ptr noundef @.str.62) #5
  br label %57

42:                                               ; preds = %1
  %43 = load ptr, ptr %3, align 8
  %44 = call i32 (ptr, ptr, ...) @sprintf(ptr noundef %43, ptr noundef @.str.63) #5
  br label %57

45:                                               ; preds = %1
  %46 = load ptr, ptr %3, align 8
  %47 = call i32 (ptr, ptr, ...) @sprintf(ptr noundef %46, ptr noundef @.str.64) #5
  br label %57

48:                                               ; preds = %1
  %49 = load ptr, ptr %3, align 8
  %50 = call i32 (ptr, ptr, ...) @sprintf(ptr noundef %49, ptr noundef @.str.65) #5
  br label %57

51:                                               ; preds = %1
  %52 = load ptr, ptr %3, align 8
  %53 = call i32 (ptr, ptr, ...) @sprintf(ptr noundef %52, ptr noundef @.str.66) #5
  br label %57

54:                                               ; preds = %1
  %55 = load ptr, ptr %3, align 8
  %56 = call i32 (ptr, ptr, ...) @sprintf(ptr noundef %55, ptr noundef @.str.67) #5
  br label %57

57:                                               ; preds = %54, %51, %48, %45, %42, %39, %36, %33, %30, %27, %24, %21, %18, %15, %12, %9, %6
  %58 = load ptr, ptr %3, align 8
  ret ptr %58
}